; Function Attrs: nounwind uwtable
define dso_local void @s_p_hashtbl_merge(ptr noundef captures(address_is_null) %0, ptr noundef captures(address_is_null) %1) #0 {
  %3 = alloca %struct.s_p_values, align 8
  %4 = icmp ne ptr %0, null
  %5 = icmp ne ptr %1, null
  %or.cond = and i1 %4, %5
  br i1 %or.cond, label %.preheader, label %.loopexit43

.preheader:                                       ; preds = %2
  %6 = getelementptr inbounds nuw i8, ptr %1, i64 64
  %7 = getelementptr inbounds nuw i8, ptr %0, i64 64
  br label %8

8:                                                ; preds = %.preheader, %._crit_edge
  %indvars.iv = phi i64 [ 0, %.preheader ], [ %indvars.iv.next, %._crit_edge ]
  %9 = getelementptr inbounds nuw [173 x ptr], ptr %6, i64 0, i64 %indvars.iv
  %.02646 = load ptr, ptr %9, align 8
  %.not47 = icmp eq ptr %.02646, null
  br i1 %.not47, label %._crit_edge, label %.lr.ph

.lr.ph:                                           ; preds = %8, %.backedge
  %.02649 = phi ptr [ %.026, %.backedge ], [ %.02646, %8 ]
  %.02748 = phi ptr [ %.027.be, %.backedge ], [ %9, %8 ]
  %10 = getelementptr inbounds nuw i8, ptr %.02649, i64 16
  %11 = load i32, ptr %10, align 8
  %12 = icmp eq i32 %11, 0
  br i1 %12, label %13, label %15

13:                                               ; preds = %.lr.ph
  %14 = getelementptr inbounds nuw i8, ptr %.02649, i64 48
  br label %.backedge

.backedge:                                        ; preds = %45, %_conf_hashtbl_insert.exit, %13
  %.027.be = phi ptr [ %14, %13 ], [ %46, %45 ], [ %.02748, %_conf_hashtbl_insert.exit ]
  %.026 = load ptr, ptr %.027.be, align 8
  %.not = icmp eq ptr %.026, null
  br i1 %.not, label %._crit_edge, label %.lr.ph, !llvm.loop !31

15:                                               ; preds = %.lr.ph
  %16 = load ptr, ptr %.02649, align 8
  %17 = load i8, ptr %16, align 1
  %.not8.i.i = icmp eq i8 %17, 0
  br i1 %.not8.i.i, label %_conf_hashtbl_index.exit.i, label %.lr.ph.i.i

.lr.ph.i.i:                                       ; preds = %15
  %18 = tail call ptr @__ctype_tolower_loc() #15
  %19 = load ptr, ptr %18, align 8
  br label %20

20:                                               ; preds = %20, %.lr.ph.i.i
  %21 = phi i8 [ %17, %.lr.ph.i.i ], [ %28, %20 ]
  %.010.i.i = phi ptr [ %16, %.lr.ph.i.i ], [ %27, %20 ]
  %.069.i.i = phi i32 [ 0, %.lr.ph.i.i ], [ %26, %20 ]
  %22 = sext i8 %21 to i64
  %23 = getelementptr inbounds i32, ptr %19, i64 %22
  %24 = load i32, ptr %23, align 4
  %25 = mul i32 %.069.i.i, 31
  %26 = add i32 %24, %25
  %27 = getelementptr inbounds nuw i8, ptr %.010.i.i, i64 1
  %28 = load i8, ptr %27, align 1
  %.not.i.i = icmp eq i8 %28, 0
  br i1 %.not.i.i, label %._crit_edge.loopexit.i.i, label %20, !llvm.loop !28

._crit_edge.loopexit.i.i:                         ; preds = %20
  %29 = urem i32 %26, 173
  %30 = zext nneg i32 %29 to i64
  br label %_conf_hashtbl_index.exit.i

_conf_hashtbl_index.exit.i:                       ; preds = %._crit_edge.loopexit.i.i, %15
  %.06.lcssa.i.i = phi i64 [ 0, %15 ], [ %30, %._crit_edge.loopexit.i.i ]
  %31 = getelementptr inbounds nuw [173 x ptr], ptr %7, i64 0, i64 %.06.lcssa.i.i
  %.012.i = load ptr, ptr %31, align 8
  %.not1113.i = icmp eq ptr %.012.i, null
  br i1 %.not1113.i, label %.loopexit, label %.lr.ph.i

.lr.ph.i:                                         ; preds = %_conf_hashtbl_index.exit.i, %35
  %.014.i = phi ptr [ %.0.i, %35 ], [ %.012.i, %_conf_hashtbl_index.exit.i ]
  %32 = load ptr, ptr %.014.i, align 8
  %33 = tail call i32 @xstrcasecmp(ptr noundef %32, ptr noundef nonnull %16) #13
  %34 = icmp eq i32 %33, 0
  br i1 %34, label %_conf_hashtbl_lookup.exit, label %35

35:                                               ; preds = %.lr.ph.i
  %36 = getelementptr inbounds nuw i8, ptr %.014.i, i64 48
  %.0.i = load ptr, ptr %36, align 8
  %.not11.i = icmp eq ptr %.0.i, null
  br i1 %.not11.i, label %.loopexit, label %.lr.ph.i, !llvm.loop !29

_conf_hashtbl_lookup.exit:                        ; preds = %.lr.ph.i
  %37 = getelementptr inbounds nuw i8, ptr %.014.i, i64 16
  %38 = load i32, ptr %37, align 8
  %39 = icmp eq i32 %38, 0
  br i1 %39, label %40, label %45

40:                                               ; preds = %_conf_hashtbl_lookup.exit
  call void @llvm.lifetime.start.p0(i64 56, ptr nonnull %3)
  %41 = getelementptr inbounds nuw i8, ptr %.02649, i64 48
  %42 = load ptr, ptr %41, align 8
  %43 = getelementptr inbounds nuw i8, ptr %.014.i, i64 48
  %44 = load ptr, ptr %43, align 8
  call void @llvm.memcpy.p0.p0.i64(ptr noundef nonnull align 8 dereferenceable(56) %3, ptr noundef nonnull align 8 dereferenceable(56) %.02649, i64 56, i1 false)
  tail call void @llvm.memcpy.p0.p0.i64(ptr noundef nonnull align 8 dereferenceable(56) %.02649, ptr noundef nonnull align 8 dereferenceable(56) %.014.i, i64 48, i1 false)
  call void @llvm.memcpy.p0.p0.i64(ptr noundef nonnull align 8 dereferenceable(56) %.014.i, ptr noundef nonnull align 8 dereferenceable(56) %3, i64 48, i1 false)
  store ptr %42, ptr %41, align 8
  store ptr %44, ptr %43, align 8
  call void @llvm.lifetime.end.p0(i64 56, ptr nonnull %3)
  br label %45

45:                                               ; preds = %40, %_conf_hashtbl_lookup.exit
  %46 = getelementptr inbounds nuw i8, ptr %.02649, i64 48
  br label %.backedge

.loopexit:                                        ; preds = %35, %_conf_hashtbl_index.exit.i
  %47 = getelementptr inbounds nuw i8, ptr %.02649, i64 48
  %48 = load ptr, ptr %47, align 8
  store ptr %48, ptr %.02748, align 8
  store ptr null, ptr %47, align 8
  %49 = load ptr, ptr %.02649, align 8
  %50 = load i8, ptr %49, align 1
  %.not8.i.i33 = icmp eq i8 %50, 0
  br i1 %.not8.i.i33, label %_conf_hashtbl_insert.exit, label %.lr.ph.i.i34

.lr.ph.i.i34:                                     ; preds = %.loopexit
  %51 = tail call ptr @__ctype_tolower_loc() #15
  %52 = load ptr, ptr %51, align 8
  br label %53

53:                                               ; preds = %53, %.lr.ph.i.i34
  %54 = phi i8 [ %50, %.lr.ph.i.i34 ], [ %61, %53 ]
  %.010.i.i35 = phi ptr [ %49, %.lr.ph.i.i34 ], [ %60, %53 ]
  %.069.i.i36 = phi i32 [ 0, %.lr.ph.i.i34 ], [ %59, %53 ]
  %55 = sext i8 %54 to i64
  %56 = getelementptr inbounds i32, ptr %52, i64 %55
  %57 = load i32, ptr %56, align 4
  %58 = mul i32 %.069.i.i36, 31
  %59 = add i32 %57, %58
  %60 = getelementptr inbounds nuw i8, ptr %.010.i.i35, i64 1
  %61 = load i8, ptr %60, align 1
  %.not.i.i37 = icmp eq i8 %61, 0
  br i1 %.not.i.i37, label %._crit_edge.loopexit.i.i38, label %53, !llvm.loop !28

._crit_edge.loopexit.i.i38:                       ; preds = %53
  %62 = urem i32 %59, 173
  %63 = zext nneg i32 %62 to i64
  br label %_conf_hashtbl_insert.exit

_conf_hashtbl_insert.exit:                        ; preds = %.loopexit, %._crit_edge.loopexit.i.i38
  %.06.lcssa.i.i40 = phi i64 [ 0, %.loopexit ], [ %63, %._crit_edge.loopexit.i.i38 ]
  %64 = getelementptr inbounds nuw [173 x ptr], ptr %7, i64 0, i64 %.06.lcssa.i.i40
  %65 = load ptr, ptr %64, align 8
  store ptr %65, ptr %47, align 8
  store ptr %.02649, ptr %64, align 8
  br label %.backedge

._crit_edge:                                      ; preds = %.backedge, %8
  %indvars.iv.next = add nuw nsw i64 %indvars.iv, 1
  %exitcond.not = icmp eq i64 %indvars.iv.next, 173
  br i1 %exitcond.not, label %.loopexit43, label %8, !llvm.loop !32

.loopexit43:                                      ; preds = %._crit_edge, %2
  ret void
}